#include <math.h>
#include <stdio.h>
#include <stdlib.h>
#include <string.h>

int sushu(int x)
{
	int i;
	int j=0;
	for(i=2;i<=x/2;i++)
		if(x%i==0)
			j=j+1;
		if(j==0)
			return 1;
		else 
			return 0;
}
void main()
{
	int n;
	int i;
	int j=0;
	scanf("%d",&n);
	for(i=3;i<n-1;i=i+2)
		if(sushu(i)==1&&sushu(i+2)==1)
		{
			j=j+1;
			printf("%d %d\n",i,i+2);
		}
		if(j==0)
			printf("empty");
}